	.text
	.file	"test11.c"
	.globl	victim_function_v11     # -- Begin function victim_function_v11
	.p2align	4, 0x90
	.type	victim_function_v11,@function
victim_function_v11:                    # @victim_function_v11
	.cfi_startproc
# %bb.0:                                # %entry
	pushq	%rbp
	.cfi_def_cfa_offset 16
	.cfi_offset %rbp, -16
	movq	%rsp, %rbp
	.cfi_def_cfa_register %rbp
	subq	$16, %rsp
	movq	%rdi, -8(%rbp)
	movq	-8(%rbp), %rax
	movq	array1_size, %rcx
	lfence
	cmpq	%rcx, %rax
	jae	.LBB0_2
# %bb.1:                                # %if.then
	movq	-8(%rbp), %rax
	movzbl	array1(,%rax), %eax
	shll	$9, %eax
	cltq
	movabsq	$array2, %rsi
	addq	%rax, %rsi
	movl	$temp, %edi
	movl	$1, %edx
	callq	memcmp
	movb	%al, temp
.LBB0_2:                                # %if.end
	addq	$16, %rsp
	popq	%rbp
	.cfi_def_cfa %rsp, 8
	retq
.Lfunc_end0:
	.size	victim_function_v11, .Lfunc_end0-victim_function_v11
	.cfi_endproc
                                        # -- End function
	.globl	main                    # -- Begin function main
	.p2align	4, 0x90
	.type	main,@function
main:                                   # @main
	.cfi_startproc
# %bb.0:                                # %entry
	pushq	%rbp
	.cfi_def_cfa_offset 16
	.cfi_offset %rbp, -16
	movq	%rsp, %rbp
	.cfi_def_cfa_register %rbp
	subq	$16, %rsp
	movabsq	$.L.str, %rdi
	leaq	-8(%rbp), %rsi
	movb	$0, %al
	callq	__isoc99_scanf
	movq	-8(%rbp), %rdi
	callq	victim_function_v11
	xorl	%eax, %eax
	addq	$16, %rsp
	popq	%rbp
	.cfi_def_cfa %rsp, 8
	retq
.Lfunc_end1:
	.size	main, .Lfunc_end1-main
	.cfi_endproc
                                        # -- End function
	.type	.L.str,@object          # @.str
	.section	.rodata.str1.1,"aMS",@progbits,1
.L.str:
	.asciz	"%zu"
	.size	.L.str, 4


	.ident	"clang version 8.0.0 (trunk 342348)"
	.section	".note.GNU-stack","",@progbits
